; Function Attrs: nounwind uwtable
define internal fastcc void @mi_try_new_handler(i1 noundef zeroext %0) unnamed_addr #3 {
  %2 = tail call ptr @_ZSt15get_new_handlerv() #20
  %.not = icmp eq ptr %2, null
  br i1 %.not, label %3, label %5

3:                                                ; preds = %1
  tail call void (i32, ptr, ...) @_mi_error_message(i32 noundef 12, ptr noundef nonnull @.str.4) #19
  br i1 %0, label %6, label %4

4:                                                ; preds = %3
  tail call void @abort() #21
  unreachable

5:                                                ; preds = %1
  tail call void %2() #19
  br label %6

6:                                                ; preds = %3, %5
  ret void
}